; Function Attrs: nounwind uwtable
define noalias nonnull ptr @l_Lean_Elab_liftMacroM___at_Lean_Elab_Command_NameGen_mkBaseNameWithSuffix_x27___spec__1___lambda__2___boxed(ptr noundef %0, ptr noundef %1, ptr noundef %2, ptr noundef %3) #1 {
  %5 = tail call zeroext i8 @l_Lean_Environment_contains(ptr noundef %0, ptr noundef %1, i8 noundef zeroext 1) #4
  tail call void @lean_inc_heartbeat() #4
  %6 = tail call noalias ptr @mi_malloc_small(i64 noundef 24) #4
  %7 = icmp eq ptr %6, null
  br i1 %7, label %8, label %l_Lean_Elab_liftMacroM___at_Lean_Elab_Command_NameGen_mkBaseNameWithSuffix_x27___spec__1___lambda__2.exit

8:                                                ; preds = %4
  tail call void @lean_internal_panic_out_of_memory() #5
  unreachable

l_Lean_Elab_liftMacroM___at_Lean_Elab_Command_NameGen_mkBaseNameWithSuffix_x27___spec__1___lambda__2.exit: ; preds = %4
  %9 = zext i8 %5 to i64
  %10 = shl nuw nsw i64 %9, 1
  %11 = or disjoint i64 %10, 1
  %12 = inttoptr i64 %11 to ptr
  %13 = getelementptr inbounds nuw i8, ptr %6, i64 4
  store i32 1, ptr %6, align 4, !tbaa !4
  store i32 131096, ptr %13, align 4
  %14 = getelementptr inbounds nuw i8, ptr %6, i64 8
  store ptr %12, ptr %14, align 8, !tbaa !9
  %15 = getelementptr inbounds nuw i8, ptr %6, i64 16
  store ptr %3, ptr %15, align 8, !tbaa !9
  %16 = ptrtoint ptr %2 to i64
  %17 = and i64 %16, 1
  %.not = icmp eq i64 %17, 0
  br i1 %.not, label %18, label %lean_dec.exit

18:                                               ; preds = %l_Lean_Elab_liftMacroM___at_Lean_Elab_Command_NameGen_mkBaseNameWithSuffix_x27___spec__1___lambda__2.exit
  %19 = load i32, ptr %2, align 4, !tbaa !4
  %20 = icmp sgt i32 %19, 1
  br i1 %20, label %21, label %23, !prof !11

21:                                               ; preds = %18
  %22 = add nsw i32 %19, -1
  store i32 %22, ptr %2, align 4, !tbaa !4
  br label %lean_dec.exit

23:                                               ; preds = %18
  %.not.i = icmp eq i32 %19, 0
  br i1 %.not.i, label %lean_dec.exit, label %24

24:                                               ; preds = %23
  tail call void @lean_dec_ref_cold(ptr noundef nonnull %2) #4
  br label %lean_dec.exit

lean_dec.exit:                                    ; preds = %24, %23, %21, %l_Lean_Elab_liftMacroM___at_Lean_Elab_Command_NameGen_mkBaseNameWithSuffix_x27___spec__1___lambda__2.exit
  ret ptr %6
}